target datalayout = "e-m:e-p270:32:32-p271:32:32-p272:64:64-i64:64-i128:128-f80:128-n8:16:32:64-S128"
target triple = "x86_64-pc-linux-gnu"

%"class.icu_77::MaybeStackArray" = type <{ ptr, i32, i8, [40 x i8], [3 x i8] }>
%"class.icu_77::CharString" = type { %"class.icu_77::MaybeStackArray", i32, [4 x i8] }

; Function Attrs: mustprogress nounwind uwtable
define weak_odr noundef nonnull align 1 dereferenceable(1) ptr @_ZN6icu_7715MaybeStackArrayIcLi40EEixEl(ptr noundef nonnull align 8 dereferenceable(53) %0, i64 noundef %1) #0 comdat align 2 {
  %3 = alloca ptr, align 8
  %4 = alloca i64, align 8
  store ptr %0, ptr %3, align 8, !tbaa !3
  store i64 %1, ptr %4, align 8, !tbaa !18
  %5 = load ptr, ptr %3, align 8
  %6 = getelementptr inbounds nuw %"class.icu_77::MaybeStackArray", ptr %5, i32 0, i32 0
  %7 = load ptr, ptr %6, align 8, !tbaa !8
  %8 = load i64, ptr %4, align 8, !tbaa !18
  %9 = getelementptr inbounds i8, ptr %7, i64 %8
  ret ptr %9
}

; Function Attrs: mustprogress nounwind uwtable
define weak_odr noundef ptr @_ZNK6icu_7715MaybeStackArrayIcLi40EE8getAliasEv(ptr noundef nonnull align 8 dereferenceable(53) %0) #0 comdat align 2 {
  %2 = alloca ptr, align 8
  store ptr %0, ptr %2, align 8, !tbaa !3
  %3 = load ptr, ptr %2, align 8
  %4 = getelementptr inbounds nuw %"class.icu_77::MaybeStackArray", ptr %3, i32 0, i32 0
  %5 = load ptr, ptr %4, align 8, !tbaa !8
  ret ptr %5
}

; Function Attrs: inlinehint mustprogress nounwind uwtable
define internal noundef signext i8 @_ZL9U_FAILURE10UErrorCode(i32 noundef %0) #2 {
  %2 = alloca i32, align 4
  store i32 %0, ptr %2, align 4, !tbaa !15
  %3 = load i32, ptr %2, align 4, !tbaa !15
  %4 = icmp sgt i32 %3, 0
  %5 = zext i1 %4 to i8
  ret i8 %5
}

; Function Attrs: mustprogress uwtable
define noundef nonnull align 8 dereferenceable(60) ptr @_ZN6icu_7710CharString20appendInvariantCharsEPKDsiR10UErrorCode(ptr noundef nonnull align 8 dereferenceable(60) %0, ptr noundef %1, i32 noundef %2, ptr noundef nonnull align 4 dereferenceable(4) %3) #1 align 2 {
  %5 = alloca ptr, align 8
  %6 = alloca ptr, align 8
  %7 = alloca ptr, align 8
  %8 = alloca i32, align 4
  %9 = alloca ptr, align 8
  store ptr %0, ptr %6, align 8, !tbaa !23
  store ptr %1, ptr %7, align 8, !tbaa !40
  store i32 %2, ptr %8, align 4, !tbaa !14
  store ptr %3, ptr %9, align 8, !tbaa !22
  %10 = load ptr, ptr %6, align 8
  %11 = load ptr, ptr %9, align 8, !tbaa !22
  %12 = load i32, ptr %11, align 4, !tbaa !15
  %13 = call noundef signext i8 @_ZL9U_FAILURE10UErrorCode(i32 noundef %12)
  %14 = icmp ne i8 %13, 0
  br i1 %14, label %15, label %16

15:                                               ; preds = %4
  store ptr %10, ptr %5, align 8
  br label %51

16:                                               ; preds = %4
  %17 = load ptr, ptr %7, align 8, !tbaa !40
  %18 = load i32, ptr %8, align 4, !tbaa !14
  %19 = call signext i8 @uprv_isInvariantUString_77(ptr noundef %17, i32 noundef %18)
  %20 = icmp ne i8 %19, 0
  br i1 %20, label %23, label %21

21:                                               ; preds = %16
  %22 = load ptr, ptr %9, align 8, !tbaa !22
  store i32 26, ptr %22, align 4, !tbaa !15
  store ptr %10, ptr %5, align 8
  br label %51

23:                                               ; preds = %16
  %24 = getelementptr inbounds nuw %"class.icu_77::CharString", ptr %10, i32 0, i32 1
  %25 = load i32, ptr %24, align 8, !tbaa !25
  %26 = load i32, ptr %8, align 4, !tbaa !14
  %27 = add nsw i32 %25, %26
  %28 = add nsw i32 %27, 1
  %29 = load ptr, ptr %9, align 8, !tbaa !22
  %30 = call noundef signext i8 @_ZN6icu_7710CharString14ensureCapacityEiiR10UErrorCode(ptr noundef nonnull align 8 dereferenceable(60) %10, i32 noundef %28, i32 noundef 0, ptr noundef nonnull align 4 dereferenceable(4) %29)
  %31 = icmp ne i8 %30, 0
  br i1 %31, label %32, label %50

32:                                               ; preds = %23
  %33 = load ptr, ptr %7, align 8, !tbaa !40
  %34 = getelementptr inbounds nuw %"class.icu_77::CharString", ptr %10, i32 0, i32 0
  %35 = call noundef ptr @_ZNK6icu_7715MaybeStackArrayIcLi40EE8getAliasEv(ptr noundef nonnull align 8 dereferenceable(53) %34)
  %36 = getelementptr inbounds nuw %"class.icu_77::CharString", ptr %10, i32 0, i32 1
  %37 = load i32, ptr %36, align 8, !tbaa !25
  %38 = sext i32 %37 to i64
  %39 = getelementptr inbounds i8, ptr %35, i64 %38
  %40 = load i32, ptr %8, align 4, !tbaa !14
  call void @u_UCharsToChars_77(ptr noundef %33, ptr noundef %39, i32 noundef %40)
  %41 = load i32, ptr %8, align 4, !tbaa !14
  %42 = getelementptr inbounds nuw %"class.icu_77::CharString", ptr %10, i32 0, i32 1
  %43 = load i32, ptr %42, align 8, !tbaa !25
  %44 = add nsw i32 %43, %41
  store i32 %44, ptr %42, align 8, !tbaa !25
  %45 = getelementptr inbounds nuw %"class.icu_77::CharString", ptr %10, i32 0, i32 0
  %46 = getelementptr inbounds nuw %"class.icu_77::CharString", ptr %10, i32 0, i32 1
  %47 = load i32, ptr %46, align 8, !tbaa !25
  %48 = sext i32 %47 to i64
  %49 = call noundef nonnull align 1 dereferenceable(1) ptr @_ZN6icu_7715MaybeStackArrayIcLi40EEixEl(ptr noundef nonnull align 8 dereferenceable(53) %45, i64 noundef %48)
  store i8 0, ptr %49, align 1, !tbaa !27
  br label %50

50:                                               ; preds = %32, %23
  store ptr %10, ptr %5, align 8
  br label %51

51:                                               ; preds = %50, %21, %15
  %52 = load ptr, ptr %5, align 8
  ret ptr %52
}