; Function Attrs: mustprogress uwtable
define noundef nonnull align 8 dereferenceable(60) ptr @_ZN6icu_7710CharString20appendInvariantCharsEPKDsiR10UErrorCode(ptr noundef nonnull returned align 8 dereferenceable(60) %0, ptr noundef %1, i32 noundef %2, ptr noundef nonnull align 4 captures(none) dereferenceable(4) %3) local_unnamed_addr #1 align 2 {
  %5 = load i32, ptr %3, align 4, !tbaa !13
  %6 = icmp slt i32 %5, 1
  br i1 %6, label %7, label %26

7:                                                ; preds = %4
  %8 = tail call signext i8 @uprv_isInvariantUString_77(ptr noundef %1, i32 noundef %2)
  %.not10 = icmp eq i8 %8, 0
  br i1 %.not10, label %9, label %10

9:                                                ; preds = %7
  store i32 26, ptr %3, align 4, !tbaa !13
  br label %26

10:                                               ; preds = %7
  %11 = getelementptr inbounds nuw i8, ptr %0, i64 56
  %12 = load i32, ptr %11, align 8, !tbaa !15
  %13 = add i32 %2, 1
  %14 = add i32 %13, %12
  %15 = tail call noundef signext i8 @_ZN6icu_7710CharString14ensureCapacityEiiR10UErrorCode(ptr noundef nonnull align 8 dereferenceable(60) %0, i32 noundef %14, i32 noundef 0, ptr noundef nonnull align 4 dereferenceable(4) %3)
  %.not11 = icmp eq i8 %15, 0
  br i1 %.not11, label %26, label %16

16:                                               ; preds = %10
  %17 = load ptr, ptr %0, align 8, !tbaa !3
  %18 = load i32, ptr %11, align 8, !tbaa !15
  %19 = sext i32 %18 to i64
  %20 = getelementptr inbounds i8, ptr %17, i64 %19
  tail call void @u_UCharsToChars_77(ptr noundef %1, ptr noundef %20, i32 noundef %2)
  %21 = load i32, ptr %11, align 8, !tbaa !15
  %22 = add nsw i32 %21, %2
  store i32 %22, ptr %11, align 8, !tbaa !15
  %23 = sext i32 %22 to i64
  %24 = load ptr, ptr %0, align 8, !tbaa !3
  %25 = getelementptr inbounds i8, ptr %24, i64 %23
  store i8 0, ptr %25, align 1, !tbaa !17
  br label %26

26:                                               ; preds = %10, %16, %4, %9
  ret ptr %0
}